target datalayout = "e-m:e-p270:32:32-p271:32:32-p272:64:64-i64:64-i128:128-f80:128-n8:16:32:64-S128"
target triple = "x86_64-pc-linux-gnu"

%class.Draw = type { i8, ptr, ptr, ptr, ptr, ptr, ptr, ptr, ptr, %struct.b2DebugDraw, ptr, ptr, ptr, ptr }
%struct.b2DebugDraw = type { ptr, ptr, ptr, ptr, ptr, ptr, ptr, ptr, ptr, %struct.b2AABB, i8, i8, i8, i8, i8, i8, i8, i8, i8, i8, i8, i8, ptr }
%struct.b2AABB = type { %struct.b2Vec2, %struct.b2Vec2 }
%struct.b2Vec2 = type { float, float }

; Function Attrs: mustprogress uwtable
define dso_local void @_ZN4Draw11DrawPolygonEPK6b2Vec2i10b2HexColor(ptr noundef nonnull align 8 dereferenceable(216) %0, ptr noundef %1, i32 noundef %2, i32 noundef %3) #6 align 2 {
  %5 = alloca ptr, align 8
  %6 = alloca ptr, align 8
  %7 = alloca i32, align 4
  %8 = alloca i32, align 4
  %9 = alloca %struct.b2Vec2, align 4
  %10 = alloca i32, align 4
  %11 = alloca %struct.b2Vec2, align 4
  %12 = alloca %struct.b2Vec2, align 4
  %13 = alloca %struct.b2Vec2, align 4
  store ptr %0, ptr %5, align 8, !tbaa !30
  store ptr %1, ptr %6, align 8, !tbaa !24
  store i32 %2, ptr %7, align 4, !tbaa !26
  store i32 %3, ptr %8, align 4, !tbaa !27
  %14 = load ptr, ptr %5, align 8
  call void @llvm.lifetime.start.p0(i64 8, ptr %9) #1
  %15 = load ptr, ptr %6, align 8, !tbaa !24
  %16 = load i32, ptr %7, align 4, !tbaa !26
  %17 = sub nsw i32 %16, 1
  %18 = sext i32 %17 to i64
  %19 = getelementptr inbounds %struct.b2Vec2, ptr %15, i64 %18
  call void @llvm.memcpy.p0.p0.i64(ptr align 4 %9, ptr align 4 %19, i64 8, i1 false), !tbaa.struct !17
  call void @llvm.lifetime.start.p0(i64 4, ptr %10) #1
  store i32 0, ptr %10, align 4, !tbaa !26
  br label %20

20:                                               ; preds = %35, %4
  %21 = load i32, ptr %10, align 4, !tbaa !26
  %22 = load i32, ptr %7, align 4, !tbaa !26
  %23 = icmp slt i32 %21, %22
  br i1 %23, label %25, label %24

24:                                               ; preds = %20
  call void @llvm.lifetime.end.p0(i64 4, ptr %10) #1
  br label %38

25:                                               ; preds = %20
  call void @llvm.lifetime.start.p0(i64 8, ptr %11) #1
  %26 = load ptr, ptr %6, align 8, !tbaa !24
  %27 = load i32, ptr %10, align 4, !tbaa !26
  %28 = sext i32 %27 to i64
  %29 = getelementptr inbounds %struct.b2Vec2, ptr %26, i64 %28
  call void @llvm.memcpy.p0.p0.i64(ptr align 4 %11, ptr align 4 %29, i64 8, i1 false), !tbaa.struct !17
  %30 = getelementptr inbounds nuw %class.Draw, ptr %14, i32 0, i32 3
  %31 = load ptr, ptr %30, align 8, !tbaa !32
  call void @llvm.memcpy.p0.p0.i64(ptr align 4 %12, ptr align 4 %9, i64 8, i1 false), !tbaa.struct !17
  call void @llvm.memcpy.p0.p0.i64(ptr align 4 %13, ptr align 4 %11, i64 8, i1 false), !tbaa.struct !17
  %32 = load i32, ptr %8, align 4, !tbaa !27
  %33 = load <2 x float>, ptr %12, align 4
  %34 = load <2 x float>, ptr %13, align 4
  call void @_ZN7GLLines7AddLineE6b2Vec2S0_10b2HexColor(ptr noundef nonnull align 8 dereferenceable(40) %31, <2 x float> %33, <2 x float> %34, i32 noundef %32)
  call void @llvm.memcpy.p0.p0.i64(ptr align 4 %9, ptr align 4 %11, i64 8, i1 false), !tbaa.struct !17
  call void @llvm.lifetime.end.p0(i64 8, ptr %11) #1
  br label %35

35:                                               ; preds = %25
  %36 = load i32, ptr %10, align 4, !tbaa !26
  %37 = add nsw i32 %36, 1
  store i32 %37, ptr %10, align 4, !tbaa !26
  br label %20, !llvm.loop !46

38:                                               ; preds = %24
  call void @llvm.lifetime.end.p0(i64 8, ptr %9) #1
  ret void
}