; Function Attrs: mustprogress uwtable
define dso_local void @_ZN4Draw11DrawPolygonEPK6b2Vec2i10b2HexColor(ptr noundef nonnull readonly align 8 captures(none) dereferenceable(216) %0, ptr noundef readonly captures(none) %1, i32 noundef %2, i32 noundef %3) local_unnamed_addr #5 align 2 {
  %5 = icmp sgt i32 %2, 0
  br i1 %5, label %.lr.ph, label %._crit_edge

.lr.ph:                                           ; preds = %4
  %6 = zext nneg i32 %2 to i64
  %7 = getelementptr %struct.b2Vec2, ptr %1, i64 %6
  %8 = getelementptr i8, ptr %7, i64 -8
  %.sroa.06.0.copyload = load <2 x float>, ptr %8, align 4
  %9 = getelementptr inbounds nuw i8, ptr %0, i64 24
  %wide.trip.count = zext nneg i32 %2 to i64
  br label %10

._crit_edge:                                      ; preds = %10, %4
  ret void

10:                                               ; preds = %.lr.ph, %10
  %indvars.iv = phi i64 [ 0, %.lr.ph ], [ %indvars.iv.next, %10 ]
  %.sroa.06.013 = phi <2 x float> [ %.sroa.06.0.copyload, %.lr.ph ], [ %.sroa.02.0.copyload, %10 ]
  %11 = getelementptr inbounds nuw %struct.b2Vec2, ptr %1, i64 %indvars.iv
  %.sroa.02.0.copyload = load <2 x float>, ptr %11, align 4
  %12 = load ptr, ptr %9, align 8, !tbaa !16
  tail call void @_ZN7GLLines7AddLineE6b2Vec2S0_10b2HexColor(ptr noundef nonnull align 8 dereferenceable(40) %12, <2 x float> %.sroa.06.013, <2 x float> %.sroa.02.0.copyload, i32 noundef %3)
  %indvars.iv.next = add nuw nsw i64 %indvars.iv, 1
  %exitcond.not = icmp eq i64 %indvars.iv.next, %wide.trip.count
  br i1 %exitcond.not, label %._crit_edge, label %10, !llvm.loop !31
}